target datalayout = "e-m:e-p270:32:32-p271:32:32-p272:64:64-i64:64-i128:128-f80:128-n8:16:32:64-S128"
target triple = "x86_64-pc-linux-gnu"

%struct.AVFormatContext = type { ptr, ptr, ptr, ptr, ptr, i32, i32, ptr, i32, ptr, i32, ptr, ptr, i64, i64, i64, i32, i32, i32, i64, i64, ptr, i32, i32, ptr, i32, i32, i32, i32, ptr, i64, i32, i32, %struct.AVIOInterruptCB, i32, i32, i32, i32, i64, i32, i32, i32, i32, i32, i32, i32, i32, i32, i32, i32, i32, i64, i32, i32, i32, i32, i32, ptr, ptr, ptr, ptr, i32, ptr, ptr, ptr, ptr, i32, ptr, ptr, i64, ptr, ptr, ptr, i64 }
%struct.AVIOInterruptCB = type { ptr, ptr }
%struct.ogg = type { ptr, i32, i32, i32, i64, ptr }
%struct.ogg_stream = type { ptr, i32, i32, i32, i32, i32, i32, i32, i64, i64, i64, i64, i64, i64, i32, ptr, i32, i32, i32, [255 x i8], i32, i32, i32, i32, i32, i32, i32, i32, ptr, i64, ptr }
%struct.oggvorbis_private = type { [3 x i32], [3 x ptr], ptr, i64, i32 }

; Function Attrs: nounwind uwtable
define internal void @vorbis_cleanup(ptr noundef %0, i32 noundef %1) #0 {
  %3 = alloca ptr, align 8
  %4 = alloca i32, align 4
  %5 = alloca ptr, align 8
  %6 = alloca ptr, align 8
  %7 = alloca ptr, align 8
  %8 = alloca i32, align 4
  store ptr %0, ptr %3, align 8, !tbaa !4
  store i32 %1, ptr %4, align 4, !tbaa !13
  call void @llvm.lifetime.start.p0(i64 8, ptr %5) #8
  %9 = load ptr, ptr %3, align 8, !tbaa !4
  %10 = getelementptr inbounds nuw %struct.AVFormatContext, ptr %9, i32 0, i32 3
  %11 = load ptr, ptr %10, align 8, !tbaa !36
  store ptr %11, ptr %5, align 8, !tbaa !47
  call void @llvm.lifetime.start.p0(i64 8, ptr %6) #8
  %12 = load ptr, ptr %5, align 8, !tbaa !47
  %13 = getelementptr inbounds nuw %struct.ogg, ptr %12, i32 0, i32 0
  %14 = load ptr, ptr %13, align 8, !tbaa !50
  %15 = load i32, ptr %4, align 4, !tbaa !13
  %16 = sext i32 %15 to i64
  %17 = getelementptr inbounds %struct.ogg_stream, ptr %14, i64 %16
  store ptr %17, ptr %6, align 8, !tbaa !54
  call void @llvm.lifetime.start.p0(i64 8, ptr %7) #8
  %18 = load ptr, ptr %6, align 8, !tbaa !54
  %19 = getelementptr inbounds nuw %struct.ogg_stream, ptr %18, i32 0, i32 30
  %20 = load ptr, ptr %19, align 8, !tbaa !59
  store ptr %20, ptr %7, align 8, !tbaa !60
  call void @llvm.lifetime.start.p0(i64 4, ptr %8) #8
  %21 = load ptr, ptr %6, align 8, !tbaa !54
  %22 = getelementptr inbounds nuw %struct.ogg_stream, ptr %21, i32 0, i32 30
  %23 = load ptr, ptr %22, align 8, !tbaa !59
  %24 = icmp ne ptr %23, null
  br i1 %24, label %25, label %41

25:                                               ; preds = %2
  %26 = load ptr, ptr %7, align 8, !tbaa !60
  %27 = getelementptr inbounds nuw %struct.oggvorbis_private, ptr %26, i32 0, i32 2
  call void @av_vorbis_parse_free(ptr noundef %27)
  store i32 0, ptr %8, align 4, !tbaa !13
  br label %28

28:                                               ; preds = %37, %25
  %29 = load i32, ptr %8, align 4, !tbaa !13
  %30 = icmp slt i32 %29, 3
  br i1 %30, label %31, label %40

31:                                               ; preds = %28
  %32 = load ptr, ptr %7, align 8, !tbaa !60
  %33 = getelementptr inbounds nuw %struct.oggvorbis_private, ptr %32, i32 0, i32 1
  %34 = load i32, ptr %8, align 4, !tbaa !13
  %35 = sext i32 %34 to i64
  %36 = getelementptr inbounds [3 x ptr], ptr %33, i64 0, i64 %35
  call void @av_freep(ptr noundef %36)
  br label %37

37:                                               ; preds = %31
  %38 = load i32, ptr %8, align 4, !tbaa !13
  %39 = add nsw i32 %38, 1
  store i32 %39, ptr %8, align 4, !tbaa !13
  br label %28, !llvm.loop !92

40:                                               ; preds = %28
  br label %41

41:                                               ; preds = %40, %2
  call void @llvm.lifetime.end.p0(i64 4, ptr %8) #8
  call void @llvm.lifetime.end.p0(i64 8, ptr %7) #8
  call void @llvm.lifetime.end.p0(i64 8, ptr %6) #8
  call void @llvm.lifetime.end.p0(i64 8, ptr %5) #8
  ret void
}